target datalayout = "e-m:e-p270:32:32-p271:32:32-p272:64:64-i64:64-i128:128-f80:128-n8:16:32:64-S128"
target triple = "x86_64-pc-linux-gnu"

%struct.lxb_html_tree = type { ptr, ptr, ptr, ptr, ptr, ptr, ptr, %struct.lxb_html_tree_pending_table_t, ptr, i8, i8, i8, i8, i8, i8, ptr, ptr, ptr, i32, i64 }
%struct.lxb_html_tree_pending_table_t = type { ptr, i8 }
%struct.lexbor_array_t = type { ptr, i64, i64 }

; Function Attrs: nounwind uwtable
define hidden zeroext i1 @lxb_html_tree_open_elements_find_by_node_reverse(ptr noundef %0, ptr noundef %1, ptr noundef %2) #0 {
  %4 = alloca i1, align 1
  %5 = alloca ptr, align 8
  %6 = alloca ptr, align 8
  %7 = alloca ptr, align 8
  %8 = alloca ptr, align 8
  %9 = alloca i64, align 8
  store ptr %0, ptr %5, align 8
  store ptr %1, ptr %6, align 8
  store ptr %2, ptr %7, align 8
  %10 = load ptr, ptr %5, align 8
  %11 = getelementptr inbounds %struct.lxb_html_tree, ptr %10, i32 0, i32 4
  %12 = load ptr, ptr %11, align 8
  %13 = getelementptr inbounds %struct.lexbor_array_t, ptr %12, i32 0, i32 0
  %14 = load ptr, ptr %13, align 8
  store ptr %14, ptr %8, align 8
  %15 = load ptr, ptr %5, align 8
  %16 = getelementptr inbounds %struct.lxb_html_tree, ptr %15, i32 0, i32 4
  %17 = load ptr, ptr %16, align 8
  %18 = getelementptr inbounds %struct.lexbor_array_t, ptr %17, i32 0, i32 2
  %19 = load i64, ptr %18, align 8
  store i64 %19, ptr %9, align 8
  br label %20

20:                                               ; preds = %39, %3
  %21 = load i64, ptr %9, align 8
  %22 = icmp ne i64 %21, 0
  br i1 %22, label %23, label %40

23:                                               ; preds = %20
  %24 = load i64, ptr %9, align 8
  %25 = add i64 %24, -1
  store i64 %25, ptr %9, align 8
  %26 = load ptr, ptr %8, align 8
  %27 = load i64, ptr %9, align 8
  %28 = getelementptr inbounds ptr, ptr %26, i64 %27
  %29 = load ptr, ptr %28, align 8
  %30 = load ptr, ptr %6, align 8
  %31 = icmp eq ptr %29, %30
  br i1 %31, label %32, label %39

32:                                               ; preds = %23
  %33 = load ptr, ptr %7, align 8
  %34 = icmp ne ptr %33, null
  br i1 %34, label %35, label %38

35:                                               ; preds = %32
  %36 = load i64, ptr %9, align 8
  %37 = load ptr, ptr %7, align 8
  store i64 %36, ptr %37, align 8
  br label %38

38:                                               ; preds = %35, %32
  store i1 true, ptr %4, align 1
  br label %46

39:                                               ; preds = %23
  br label %20

40:                                               ; preds = %20
  %41 = load ptr, ptr %7, align 8
  %42 = icmp ne ptr %41, null
  br i1 %42, label %43, label %45

43:                                               ; preds = %40
  %44 = load ptr, ptr %7, align 8
  store i64 0, ptr %44, align 8
  br label %45

45:                                               ; preds = %43, %40
  store i1 false, ptr %4, align 1
  br label %46

46:                                               ; preds = %45, %38
  %47 = load i1, ptr %4, align 1
  ret i1 %47
}